target datalayout = "e-m:e-p270:32:32-p271:32:32-p272:64:64-i64:64-i128:128-f80:128-n8:16:32:64-S128"
target triple = "x86_64-pc-linux-gnu"

%"struct.clang::interp::BlockPointer" = type { ptr, i32 }
%"class.clang::interp::Pointer" = type <{ i64, ptr, ptr, %union.anon, i32, [4 x i8] }>
%union.anon = type { %"struct.clang::interp::BlockPointer", [8 x i8] }

; Function Attrs: mustprogress nounwind uwtable
define linkonce_odr hidden noundef zeroext i1 @_ZNK5clang6interp7Pointer14isBlockPointerEv(ptr noundef nonnull align 8 dereferenceable(52) %0) #0 comdat align 2 {
  %2 = alloca ptr, align 8
  store ptr %0, ptr %2, align 8
  %3 = load ptr, ptr %2, align 8
  %4 = getelementptr inbounds nuw %"class.clang::interp::Pointer", ptr %3, i32 0, i32 4
  %5 = load i32, ptr %4, align 8
  %6 = icmp eq i32 %5, 0
  ret i1 %6
}

; Function Attrs: mustprogress nounwind uwtable
define dso_local void @_ZN5clang6interp7PointerD2Ev(ptr noundef nonnull align 8 dereferenceable(52) %0) unnamed_addr #0 align 2 {
  %2 = alloca ptr, align 8
  %3 = alloca ptr, align 8
  store ptr %0, ptr %2, align 8
  %4 = load ptr, ptr %2, align 8
  %5 = call noundef zeroext i1 @_ZNK5clang6interp7Pointer14isBlockPointerEv(ptr noundef nonnull align 8 dereferenceable(52) %4)
  br i1 %5, label %7, label %6

6:                                                ; preds = %1
  br label %18

7:                                                ; preds = %1
  %8 = getelementptr inbounds nuw %"class.clang::interp::Pointer", ptr %4, i32 0, i32 3
  %9 = getelementptr inbounds nuw %"struct.clang::interp::BlockPointer", ptr %8, i32 0, i32 0
  %10 = load ptr, ptr %9, align 8
  store ptr %10, ptr %3, align 8
  %11 = load ptr, ptr %3, align 8
  %12 = icmp ne ptr %11, null
  br i1 %12, label %13, label %18

13:                                               ; preds = %7
  %14 = load ptr, ptr %3, align 8
  call void @_ZN5clang6interp5Block13removePointerEPNS0_7PointerE(ptr noundef nonnull align 8 dereferenceable(40) %14, ptr noundef %4)
  %15 = getelementptr inbounds nuw %"class.clang::interp::Pointer", ptr %4, i32 0, i32 3
  %16 = getelementptr inbounds nuw %"struct.clang::interp::BlockPointer", ptr %15, i32 0, i32 0
  store ptr null, ptr %16, align 8
  %17 = load ptr, ptr %3, align 8
  call void @_ZN5clang6interp5Block7cleanupEv(ptr noundef nonnull align 8 dereferenceable(40) %17)
  br label %18

18:                                               ; preds = %13, %7, %6
  ret void
}