; Function Attrs: mustprogress nounwind uwtable
define dso_local void @_ZN5clang6interp7PointerD2Ev(ptr noundef nonnull align 8 dereferenceable(52) %0) unnamed_addr #0 align 2 {
  %2 = getelementptr inbounds nuw i8, ptr %0, i64 48
  %3 = load i32, ptr %2, align 8
  %4 = icmp eq i32 %3, 0
  br i1 %4, label %5, label %9

5:                                                ; preds = %1
  %6 = getelementptr inbounds nuw i8, ptr %0, i64 24
  %7 = load ptr, ptr %6, align 8
  %.not = icmp eq ptr %7, null
  br i1 %.not, label %9, label %8

8:                                                ; preds = %5
  tail call void @_ZN5clang6interp5Block13removePointerEPNS0_7PointerE(ptr noundef nonnull align 8 dereferenceable(40) %7, ptr noundef nonnull %0) #18
  store ptr null, ptr %6, align 8
  tail call void @_ZN5clang6interp5Block7cleanupEv(ptr noundef nonnull align 8 dereferenceable(40) %7) #18
  br label %9

9:                                                ; preds = %1, %8, %5
  ret void
}